target datalayout = "e-m:e-p270:32:32-p271:32:32-p272:64:64-i64:64-i128:128-f80:128-n8:16:32:64-S128"
target triple = "x86_64-pc-linux-gnu"

@mainApp = external global ptr, align 8
@.str.7 = private unnamed_addr constant [7 x i8] c"extcap\00", align 1

; Function Attrs: mustprogress null_pointer_is_valid sspstrong uwtable
define void @_ZN19ExtcapOptionsDialog11storeValuesEv(ptr noundef align 8 dereferenceable_or_null(112) %0) #0 align 2 {
  %2 = alloca ptr, align 8
  %3 = alloca ptr, align 8
  store ptr %0, ptr %2, align 8
  %4 = load ptr, ptr %2, align 8
  call void @llvm.lifetime.start.p0(i64 8, ptr %3) #27
  %5 = call noundef ptr @_ZN19ExtcapOptionsDialog19getArgumentSettingsEbb(ptr noundef align 8 dereferenceable_or_null(112) %4, i1 noundef zeroext false, i1 noundef zeroext true)
  store ptr %5, ptr %3, align 8
  %6 = load ptr, ptr %3, align 8
  %7 = call i32 @g_hash_table_size(ptr noundef %6)
  %8 = icmp ugt i32 %7, 0
  br i1 %8, label %9, label %15

9:                                                ; preds = %1
  %10 = load ptr, ptr %3, align 8
  %11 = call zeroext i1 @prefs_store_ext_multiple(ptr noundef @.str.7, ptr noundef %10)
  br i1 %11, label %12, label %14

12:                                               ; preds = %9
  %13 = load ptr, ptr @mainApp, align 8
  call void @_ZN15MainApplication13emitAppSignalENS_9AppSignalE(ptr noundef align 8 dereferenceable_or_null(216) %13, i32 noundef 9)
  br label %14

14:                                               ; preds = %12, %9
  br label %15

15:                                               ; preds = %14, %1
  %16 = load ptr, ptr %3, align 8
  call void @g_hash_table_unref(ptr noundef %16)
  call void @llvm.lifetime.end.p0(i64 8, ptr %3) #27
  ret void
}