; Function Attrs: mustprogress null_pointer_is_valid sspstrong uwtable
define void @_ZN19ExtcapOptionsDialog11storeValuesEv(ptr noundef align 8 dereferenceable_or_null(112) %0) local_unnamed_addr #0 align 2 {
  %2 = tail call noundef ptr @_ZN19ExtcapOptionsDialog19getArgumentSettingsEbb(ptr noundef align 8 dereferenceable_or_null(112) %0, i1 noundef zeroext false, i1 noundef zeroext true)
  %3 = tail call i32 @g_hash_table_size(ptr noundef %2)
  %.not = icmp eq i32 %3, 0
  br i1 %.not, label %8, label %4

4:                                                ; preds = %1
  %5 = tail call zeroext i1 @prefs_store_ext_multiple(ptr noundef nonnull @.str.7, ptr noundef %2)
  br i1 %5, label %6, label %8

6:                                                ; preds = %4
  %7 = load ptr, ptr @mainApp, align 8
  tail call void @_ZN15MainApplication13emitAppSignalENS_9AppSignalE(ptr noundef align 8 dereferenceable_or_null(216) %7, i32 noundef 9)
  br label %8

8:                                                ; preds = %4, %6, %1
  tail call void @g_hash_table_unref(ptr noundef %2)
  ret void
}